
a.out:     file format elf32-littleriscv


Disassembly of section .text:

00010074 <.text>:
   10074:	00002197          	auipc	gp,0x2
   10078:	1c418193          	addi	gp,gp,452 # 0x12238
   1007c:	80c18513          	addi	a0,gp,-2036
   10080:	82818613          	addi	a2,gp,-2008
   10084:	40a60633          	sub	a2,a2,a0
   10088:	00000593          	li	a1,0
   1008c:	2bc000ef          	jal	ra,0x10348
   10090:	00000517          	auipc	a0,0x0
   10094:	1a450513          	addi	a0,a0,420 # 0x10234
   10098:	154000ef          	jal	ra,0x101ec
   1009c:	20c000ef          	jal	ra,0x102a8
   100a0:	00012503          	lw	a0,0(sp)
   100a4:	00410593          	addi	a1,sp,4
   100a8:	00000613          	li	a2,0
   100ac:	100000ef          	jal	ra,0x101ac
   100b0:	1500006f          	j	0x10200
   100b4:	00008067          	ret
   100b8:	00012537          	lui	a0,0x12
   100bc:	000127b7          	lui	a5,0x12
   100c0:	a3850713          	addi	a4,a0,-1480 # 0x11a38
   100c4:	a3878793          	addi	a5,a5,-1480 # 0x11a38
   100c8:	00e78c63          	beq	a5,a4,0x100e0
   100cc:	00000337          	lui	t1,0x0
   100d0:	00030313          	mv	t1,t1
   100d4:	00030663          	beqz	t1,0x100e0
   100d8:	a3850513          	addi	a0,a0,-1480
   100dc:	00030067          	jr	t1
   100e0:	00008067          	ret
   100e4:	000127b7          	lui	a5,0x12
   100e8:	00012537          	lui	a0,0x12
   100ec:	a3878593          	addi	a1,a5,-1480 # 0x11a38
   100f0:	a3850793          	addi	a5,a0,-1480 # 0x11a38
   100f4:	40f585b3          	sub	a1,a1,a5
   100f8:	4025d593          	srai	a1,a1,0x2
   100fc:	00200793          	li	a5,2
   10100:	02f5c5b3          	div	a1,a1,a5
   10104:	00058c63          	beqz	a1,0x1011c
   10108:	00000337          	lui	t1,0x0
   1010c:	00030313          	mv	t1,t1
   10110:	00030663          	beqz	t1,0x1011c
   10114:	a3850513          	addi	a0,a0,-1480
   10118:	00030067          	jr	t1
   1011c:	00008067          	ret
   10120:	80c1c703          	lbu	a4,-2036(gp)
   10124:	04071663          	bnez	a4,0x10170
   10128:	ff010113          	addi	sp,sp,-16
   1012c:	00812423          	sw	s0,8(sp)
   10130:	00112623          	sw	ra,12(sp)
   10134:	00078413          	mv	s0,a5
   10138:	f81ff0ef          	jal	ra,0x100b8
   1013c:	000007b7          	lui	a5,0x0
   10140:	00078793          	mv	a5,a5
   10144:	00078a63          	beqz	a5,0x10158
   10148:	00010537          	lui	a0,0x10
   1014c:	60050513          	addi	a0,a0,1536 # 0x10600
   10150:	ffff0097          	auipc	ra,0xffff0
   10154:	eb0080e7          	jalr	-336(ra) # 0x0
   10158:	00100793          	li	a5,1
   1015c:	80f18623          	sb	a5,-2036(gp)
   10160:	00c12083          	lw	ra,12(sp)
   10164:	00812403          	lw	s0,8(sp)
   10168:	01010113          	addi	sp,sp,16
   1016c:	00008067          	ret
   10170:	00008067          	ret
   10174:	000007b7          	lui	a5,0x0
   10178:	00078793          	mv	a5,a5
   1017c:	02078663          	beqz	a5,0x101a8
   10180:	000125b7          	lui	a1,0x12
   10184:	00010537          	lui	a0,0x10
   10188:	ff010113          	addi	sp,sp,-16
   1018c:	a4858593          	addi	a1,a1,-1464 # 0x11a48
   10190:	60050513          	addi	a0,a0,1536 # 0x10600
   10194:	00112623          	sw	ra,12(sp)
   10198:	ffff0097          	auipc	ra,0xffff0
   1019c:	e68080e7          	jalr	-408(ra) # 0x0
   101a0:	00c12083          	lw	ra,12(sp)
   101a4:	01010113          	addi	sp,sp,16
   101a8:	f3dff06f          	j	0x100e4
   101ac:	fe010113          	addi	sp,sp,-32
   101b0:	00812e23          	sw	s0,28(sp)
   101b4:	02010413          	addi	s0,sp,32
   101b8:	00a00793          	li	a5,10
   101bc:	fef42623          	sw	a5,-20(s0)
   101c0:	01400793          	li	a5,20
   101c4:	fef42423          	sw	a5,-24(s0)
   101c8:	000017b7          	lui	a5,0x1
   101cc:	fec42683          	lw	a3,-20(s0)
   101d0:	fe842703          	lw	a4,-24(s0)
   101d4:	00e68733          	add	a4,a3,a4
   101d8:	00e7a023          	sw	a4,0(a5) # 0x1000
   101dc:	00000013          	nop
   101e0:	01c12403          	lw	s0,28(sp)
   101e4:	02010113          	addi	sp,sp,32
   101e8:	00008067          	ret
   101ec:	00050593          	mv	a1,a0
   101f0:	00000693          	li	a3,0
   101f4:	00000613          	li	a2,0
   101f8:	00000513          	li	a0,0
   101fc:	2280006f          	j	0x10424
   10200:	ff010113          	addi	sp,sp,-16
   10204:	00000593          	li	a1,0
   10208:	00812423          	sw	s0,8(sp)
   1020c:	00112623          	sw	ra,12(sp)
   10210:	00050413          	mv	s0,a0
   10214:	290000ef          	jal	ra,0x104a4
   10218:	000127b7          	lui	a5,0x12
   1021c:	a3c7a503          	lw	a0,-1476(a5) # 0x11a3c
   10220:	03c52783          	lw	a5,60(a0)
   10224:	00078463          	beqz	a5,0x1022c
   10228:	000780e7          	jalr	a5
   1022c:	00040513          	mv	a0,s0
   10230:	384000ef          	jal	ra,0x105b4
   10234:	fe010113          	addi	sp,sp,-32
   10238:	000117b7          	lui	a5,0x11
   1023c:	00011737          	lui	a4,0x11
   10240:	00812c23          	sw	s0,24(sp)
   10244:	60870713          	addi	a4,a4,1544 # 0x11608
   10248:	60c78413          	addi	s0,a5,1548 # 0x1160c
   1024c:	40e40433          	sub	s0,s0,a4
   10250:	00912a23          	sw	s1,20(sp)
   10254:	01212823          	sw	s2,16(sp)
   10258:	01312623          	sw	s3,12(sp)
   1025c:	00112e23          	sw	ra,28(sp)
   10260:	40245413          	srai	s0,s0,0x2
   10264:	00000493          	li	s1,0
   10268:	60c78913          	addi	s2,a5,1548
   1026c:	ffc00993          	li	s3,-4
   10270:	02941063          	bne	s0,s1,0x10290
   10274:	01812403          	lw	s0,24(sp)
   10278:	01c12083          	lw	ra,28(sp)
   1027c:	01412483          	lw	s1,20(sp)
   10280:	01012903          	lw	s2,16(sp)
   10284:	00c12983          	lw	s3,12(sp)
   10288:	02010113          	addi	sp,sp,32
   1028c:	e29ff06f          	j	0x100b4
   10290:	033487b3          	mul	a5,s1,s3
   10294:	00148493          	addi	s1,s1,1
   10298:	00f907b3          	add	a5,s2,a5
   1029c:	ffc7a783          	lw	a5,-4(a5)
   102a0:	000780e7          	jalr	a5
   102a4:	fcdff06f          	j	0x10270
   102a8:	ff010113          	addi	sp,sp,-16
   102ac:	00812423          	sw	s0,8(sp)
   102b0:	00912223          	sw	s1,4(sp)
   102b4:	00011437          	lui	s0,0x11
   102b8:	000114b7          	lui	s1,0x11
   102bc:	60448793          	addi	a5,s1,1540 # 0x11604
   102c0:	60440413          	addi	s0,s0,1540 # 0x11604
   102c4:	40f40433          	sub	s0,s0,a5
   102c8:	01212023          	sw	s2,0(sp)
   102cc:	00112623          	sw	ra,12(sp)
   102d0:	40245413          	srai	s0,s0,0x2
   102d4:	60448493          	addi	s1,s1,1540
   102d8:	00000913          	li	s2,0
   102dc:	04891263          	bne	s2,s0,0x10320
   102e0:	000114b7          	lui	s1,0x11
   102e4:	dd1ff0ef          	jal	ra,0x100b4
   102e8:	00011437          	lui	s0,0x11
   102ec:	60448793          	addi	a5,s1,1540 # 0x11604
   102f0:	60840413          	addi	s0,s0,1544 # 0x11608
   102f4:	40f40433          	sub	s0,s0,a5
   102f8:	40245413          	srai	s0,s0,0x2
   102fc:	60448493          	addi	s1,s1,1540
   10300:	00000913          	li	s2,0
   10304:	02891863          	bne	s2,s0,0x10334
   10308:	00c12083          	lw	ra,12(sp)
   1030c:	00812403          	lw	s0,8(sp)
   10310:	00412483          	lw	s1,4(sp)
   10314:	00012903          	lw	s2,0(sp)
   10318:	01010113          	addi	sp,sp,16
   1031c:	00008067          	ret
   10320:	0004a783          	lw	a5,0(s1)
   10324:	00190913          	addi	s2,s2,1
   10328:	00448493          	addi	s1,s1,4
   1032c:	000780e7          	jalr	a5
   10330:	fadff06f          	j	0x102dc
   10334:	0004a783          	lw	a5,0(s1)
   10338:	00190913          	addi	s2,s2,1
   1033c:	00448493          	addi	s1,s1,4
   10340:	000780e7          	jalr	a5
   10344:	fc1ff06f          	j	0x10304
   10348:	00f00313          	li	t1,15
   1034c:	00050713          	mv	a4,a0
   10350:	02c37e63          	bleu	a2,t1,0x1038c
   10354:	00f77793          	andi	a5,a4,15
   10358:	0a079063          	bnez	a5,0x103f8
   1035c:	08059263          	bnez	a1,0x103e0
   10360:	ff067693          	andi	a3,a2,-16
   10364:	00f67613          	andi	a2,a2,15
   10368:	00e686b3          	add	a3,a3,a4
   1036c:	00b72023          	sw	a1,0(a4)
   10370:	00b72223          	sw	a1,4(a4)
   10374:	00b72423          	sw	a1,8(a4)
   10378:	00b72623          	sw	a1,12(a4)
   1037c:	01070713          	addi	a4,a4,16
   10380:	fed766e3          	bltu	a4,a3,0x1036c
   10384:	00061463          	bnez	a2,0x1038c
   10388:	00008067          	ret
   1038c:	40c306b3          	sub	a3,t1,a2
   10390:	00269693          	slli	a3,a3,0x2
   10394:	00000297          	auipc	t0,0x0
   10398:	005686b3          	add	a3,a3,t0
   1039c:	00c68067          	jr	12(a3)
   103a0:	00b70723          	sb	a1,14(a4)
   103a4:	00b706a3          	sb	a1,13(a4)
   103a8:	00b70623          	sb	a1,12(a4)
   103ac:	00b705a3          	sb	a1,11(a4)
   103b0:	00b70523          	sb	a1,10(a4)
   103b4:	00b704a3          	sb	a1,9(a4)
   103b8:	00b70423          	sb	a1,8(a4)
   103bc:	00b703a3          	sb	a1,7(a4)
   103c0:	00b70323          	sb	a1,6(a4)
   103c4:	00b702a3          	sb	a1,5(a4)
   103c8:	00b70223          	sb	a1,4(a4)
   103cc:	00b701a3          	sb	a1,3(a4)
   103d0:	00b70123          	sb	a1,2(a4)
   103d4:	00b700a3          	sb	a1,1(a4)
   103d8:	00b70023          	sb	a1,0(a4)
   103dc:	00008067          	ret
   103e0:	0ff5f593          	andi	a1,a1,255
   103e4:	00859693          	slli	a3,a1,0x8
   103e8:	00d5e5b3          	or	a1,a1,a3
   103ec:	01059693          	slli	a3,a1,0x10
   103f0:	00d5e5b3          	or	a1,a1,a3
   103f4:	f6dff06f          	j	0x10360
   103f8:	00279693          	slli	a3,a5,0x2
   103fc:	00000297          	auipc	t0,0x0
   10400:	005686b3          	add	a3,a3,t0
   10404:	00008293          	mv	t0,ra
   10408:	fa0680e7          	jalr	-96(a3)
   1040c:	00028093          	mv	ra,t0
   10410:	ff078793          	addi	a5,a5,-16
   10414:	40f70733          	sub	a4,a4,a5
   10418:	00f60633          	add	a2,a2,a5
   1041c:	f6c378e3          	bleu	a2,t1,0x1038c
   10420:	f3dff06f          	j	0x1035c
   10424:	000127b7          	lui	a5,0x12
   10428:	a3c7a703          	lw	a4,-1476(a5) # 0x11a3c
   1042c:	00050313          	mv	t1,a0
   10430:	14872783          	lw	a5,328(a4)
   10434:	00079663          	bnez	a5,0x10440
   10438:	14c70793          	addi	a5,a4,332
   1043c:	14f72423          	sw	a5,328(a4)
   10440:	0047a703          	lw	a4,4(a5)
   10444:	01f00813          	li	a6,31
   10448:	fff00513          	li	a0,-1
   1044c:	04e84a63          	blt	a6,a4,0x104a0
   10450:	00271893          	slli	a7,a4,0x2
   10454:	02030c63          	beqz	t1,0x1048c
   10458:	01178533          	add	a0,a5,a7
   1045c:	08c52423          	sw	a2,136(a0)
   10460:	1887a803          	lw	a6,392(a5)
   10464:	00100613          	li	a2,1
   10468:	00e61633          	sll	a2,a2,a4
   1046c:	00c86833          	or	a6,a6,a2
   10470:	1907a423          	sw	a6,392(a5)
   10474:	10d52423          	sw	a3,264(a0)
   10478:	00200693          	li	a3,2
   1047c:	00d31863          	bne	t1,a3,0x1048c
   10480:	18c7a683          	lw	a3,396(a5)
   10484:	00c6e633          	or	a2,a3,a2
   10488:	18c7a623          	sw	a2,396(a5)
   1048c:	00170713          	addi	a4,a4,1
   10490:	00e7a223          	sw	a4,4(a5)
   10494:	011787b3          	add	a5,a5,a7
   10498:	00b7a423          	sw	a1,8(a5)
   1049c:	00000513          	li	a0,0
   104a0:	00008067          	ret
   104a4:	fd010113          	addi	sp,sp,-48
   104a8:	000127b7          	lui	a5,0x12
   104ac:	01312e23          	sw	s3,28(sp)
   104b0:	a3c7a983          	lw	s3,-1476(a5) # 0x11a3c
   104b4:	01412c23          	sw	s4,24(sp)
   104b8:	01512a23          	sw	s5,20(sp)
   104bc:	01612823          	sw	s6,16(sp)
   104c0:	02112623          	sw	ra,44(sp)
   104c4:	02812423          	sw	s0,40(sp)
   104c8:	02912223          	sw	s1,36(sp)
   104cc:	03212023          	sw	s2,32(sp)
   104d0:	01712623          	sw	s7,12(sp)
   104d4:	00050a93          	mv	s5,a0
   104d8:	00058a13          	mv	s4,a1
   104dc:	00100b13          	li	s6,1
   104e0:	1489a483          	lw	s1,328(s3)
   104e4:	00048c63          	beqz	s1,0x104fc
   104e8:	0044a403          	lw	s0,4(s1)
   104ec:	fff40913          	addi	s2,s0,-1
   104f0:	00241413          	slli	s0,s0,0x2
   104f4:	00848433          	add	s0,s1,s0
   104f8:	02095863          	bgez	s2,0x10528
   104fc:	02c12083          	lw	ra,44(sp)
   10500:	02812403          	lw	s0,40(sp)
   10504:	02412483          	lw	s1,36(sp)
   10508:	02012903          	lw	s2,32(sp)
   1050c:	01c12983          	lw	s3,28(sp)
   10510:	01812a03          	lw	s4,24(sp)
   10514:	01412a83          	lw	s5,20(sp)
   10518:	01012b03          	lw	s6,16(sp)
   1051c:	00c12b83          	lw	s7,12(sp)
   10520:	03010113          	addi	sp,sp,48
   10524:	00008067          	ret
   10528:	000a0c63          	beqz	s4,0x10540
   1052c:	10442783          	lw	a5,260(s0)
   10530:	01478863          	beq	a5,s4,0x10540
   10534:	fff90913          	addi	s2,s2,-1
   10538:	ffc40413          	addi	s0,s0,-4
   1053c:	fbdff06f          	j	0x104f8
   10540:	0044a703          	lw	a4,4(s1)
   10544:	00442783          	lw	a5,4(s0)
   10548:	fff70713          	addi	a4,a4,-1
   1054c:	03271c63          	bne	a4,s2,0x10584
   10550:	0124a223          	sw	s2,4(s1)
   10554:	fe0780e3          	beqz	a5,0x10534
   10558:	1884a683          	lw	a3,392(s1)
   1055c:	012b1733          	sll	a4,s6,s2
   10560:	0044ab83          	lw	s7,4(s1)
   10564:	00d776b3          	and	a3,a4,a3
   10568:	02069263          	bnez	a3,0x1058c
   1056c:	000780e7          	jalr	a5
   10570:	0044a703          	lw	a4,4(s1)
   10574:	1489a783          	lw	a5,328(s3)
   10578:	f77714e3          	bne	a4,s7,0x104e0
   1057c:	faf48ce3          	beq	s1,a5,0x10534
   10580:	f61ff06f          	j	0x104e0
   10584:	00042223          	sw	zero,4(s0)
   10588:	fcdff06f          	j	0x10554
   1058c:	18c4a683          	lw	a3,396(s1)
   10590:	08442583          	lw	a1,132(s0)
   10594:	00d77733          	and	a4,a4,a3
   10598:	00071863          	bnez	a4,0x105a8
   1059c:	000a8513          	mv	a0,s5
   105a0:	000780e7          	jalr	a5
   105a4:	fcdff06f          	j	0x10570
   105a8:	00058513          	mv	a0,a1
   105ac:	000780e7          	jalr	a5
   105b0:	fc1ff06f          	j	0x10570
   105b4:	00000593          	li	a1,0
   105b8:	00000613          	li	a2,0
   105bc:	00000693          	li	a3,0
   105c0:	00000713          	li	a4,0
   105c4:	00000793          	li	a5,0
   105c8:	05d00893          	li	a7,93
   105cc:	00000073          	ecall
   105d0:	02055263          	bgez	a0,0x105f4
   105d4:	ff010113          	addi	sp,sp,-16
   105d8:	00812423          	sw	s0,8(sp)
   105dc:	00050413          	mv	s0,a0
   105e0:	00112623          	sw	ra,12(sp)
   105e4:	40800433          	neg	s0,s0
   105e8:	010000ef          	jal	ra,0x105f8
   105ec:	00852023          	sw	s0,0(a0)
   105f0:	0000006f          	j	0x105f0
   105f4:	0000006f          	j	0x105f4
   105f8:	8081a503          	lw	a0,-2040(gp)
   105fc:	00008067          	ret
